; Function Attrs: mustprogress nofree norecurse nosync nounwind willreturn memory(write, argmem: readwrite, inaccessiblemem: none) uwtable
define hidden void @_ZN3sat3mus5resetEv(ptr nocapture noundef nonnull readonly align 8 dereferenceable(44) %this) local_unnamed_addr #5 align 2 {
entry:
  %m_core = getelementptr inbounds i8, ptr %this, i64 8
  %0 = load ptr, ptr %m_core, align 8
  %tobool.not.i = icmp eq ptr %0, null
  br i1 %tobool.not.i, label %_ZN6vectorIN3sat7literalELb0EjE5resetEv.exit, label %if.then.i

if.then.i:                                        ; preds = %entry
  %arrayidx.i = getelementptr inbounds i8, ptr %0, i64 -4
  store i32 0, ptr %arrayidx.i, align 4
  br label %_ZN6vectorIN3sat7literalELb0EjE5resetEv.exit

_ZN6vectorIN3sat7literalELb0EjE5resetEv.exit:     ; preds = %entry, %if.then.i
  %m_mus = getelementptr inbounds i8, ptr %this, i64 16
  %1 = load ptr, ptr %m_mus, align 8
  %tobool.not.i1 = icmp eq ptr %1, null
  br i1 %tobool.not.i1, label %_ZN6vectorIN3sat7literalELb0EjE5resetEv.exit4, label %if.then.i2

if.then.i2:                                       ; preds = %_ZN6vectorIN3sat7literalELb0EjE5resetEv.exit
  %arrayidx.i3 = getelementptr inbounds i8, ptr %1, i64 -4
  store i32 0, ptr %arrayidx.i3, align 4
  br label %_ZN6vectorIN3sat7literalELb0EjE5resetEv.exit4

_ZN6vectorIN3sat7literalELb0EjE5resetEv.exit4:    ; preds = %_ZN6vectorIN3sat7literalELb0EjE5resetEv.exit, %if.then.i2
  %m_model = getelementptr inbounds i8, ptr %this, i64 32
  %2 = load ptr, ptr %m_model, align 8
  %tobool.not.i5 = icmp eq ptr %2, null
  br i1 %tobool.not.i5, label %_ZN6vectorI5lboolLb0EjE5resetEv.exit, label %if.then.i6

if.then.i6:                                       ; preds = %_ZN6vectorIN3sat7literalELb0EjE5resetEv.exit4
  %arrayidx.i7 = getelementptr inbounds i8, ptr %2, i64 -4
  store i32 0, ptr %arrayidx.i7, align 4
  br label %_ZN6vectorI5lboolLb0EjE5resetEv.exit

_ZN6vectorI5lboolLb0EjE5resetEv.exit:             ; preds = %_ZN6vectorIN3sat7literalELb0EjE5resetEv.exit4, %if.then.i6
  ret void
}